target datalayout = "e-m:e-p270:32:32-p271:32:32-p272:64:64-i64:64-i128:128-f80:128-n8:16:32:64-S128"
target triple = "x86_64-pc-linux-gnu"

%struct.gc_visit_state_basic = type { ptr, i32 }

; Function Attrs: nounwind uwtable
define internal i32 @gc_visit_callback_basic(ptr noundef %0, ptr noundef %1) #0 {
  %3 = alloca i32, align 4
  %4 = alloca ptr, align 8
  %5 = alloca ptr, align 8
  %6 = alloca ptr, align 8
  %7 = alloca i32, align 4
  store ptr %0, ptr %4, align 8, !tbaa !3
  store ptr %1, ptr %5, align 8, !tbaa !31
  call void @llvm.lifetime.start.p0(i64 8, ptr %6) #6
  %8 = load ptr, ptr %5, align 8, !tbaa !31
  store ptr %8, ptr %6, align 8, !tbaa !32
  %9 = load ptr, ptr %4, align 8, !tbaa !3
  %10 = load ptr, ptr %6, align 8, !tbaa !32
  %11 = getelementptr inbounds nuw %struct.gc_visit_state_basic, ptr %10, i32 0, i32 0
  %12 = load ptr, ptr %11, align 8, !tbaa !13
  %13 = icmp eq ptr %9, %12
  br i1 %13, label %14, label %17

14:                                               ; preds = %2
  %15 = load ptr, ptr %6, align 8, !tbaa !32
  %16 = getelementptr inbounds nuw %struct.gc_visit_state_basic, ptr %15, i32 0, i32 1
  store i32 1, ptr %16, align 8, !tbaa !15
  store i32 0, ptr %3, align 4
  store i32 1, ptr %7, align 4
  br label %18

17:                                               ; preds = %2
  store i32 1, ptr %3, align 4
  store i32 1, ptr %7, align 4
  br label %18

18:                                               ; preds = %17, %14
  call void @llvm.lifetime.end.p0(i64 8, ptr %6) #6
  %19 = load i32, ptr %3, align 4
  ret i32 %19
}