; Function Attrs: mustprogress nofree norecurse nosync nounwind willreturn memory(argmem: readwrite) uwtable
define internal range(i32 0, 2) i32 @gc_visit_callback_basic(ptr noundef readnone %0, ptr noundef captures(none) %1) #3 {
  %3 = load ptr, ptr %1, align 8, !tbaa !9
  %4 = icmp eq ptr %0, %3
  br i1 %4, label %5, label %7

5:                                                ; preds = %2
  %6 = getelementptr inbounds nuw i8, ptr %1, i64 8
  store i32 1, ptr %6, align 8, !tbaa !12
  br label %7

7:                                                ; preds = %2, %5
  %.0 = phi i32 [ 0, %5 ], [ 1, %2 ]
  ret i32 %.0
}